target datalayout = "e-m:e-p270:32:32-p271:32:32-p272:64:64-i64:64-i128:128-f80:128-n8:16:32:64-S128"
target triple = "x86_64-pc-linux-gnu"

%struct.ocsp_responder_id_st = type { i32, %union.anon }
%union.anon = type { ptr }
%struct.X509_algor_st = type { ptr, ptr }
%struct.x509_st = type { %struct.x509_cinf_st, %struct.X509_algor_st, %struct.asn1_string_st, %struct.x509_sig_info_st, %struct.CRYPTO_REF_COUNT, %struct.crypto_ex_data_st, i64, i64, i32, i32, i32, i32, ptr, ptr, ptr, ptr, ptr, ptr, ptr, ptr, [20 x i8], ptr, ptr, i32, ptr, ptr, ptr }
%struct.x509_cinf_st = type { ptr, %struct.asn1_string_st, %struct.X509_algor_st, ptr, %struct.X509_val_st, ptr, ptr, ptr, ptr, ptr, %struct.ASN1_ENCODING_st }
%struct.X509_val_st = type { ptr, ptr }
%struct.ASN1_ENCODING_st = type { ptr, i64, i32 }
%struct.asn1_string_st = type { i32, i32, ptr, i64 }
%struct.x509_sig_info_st = type { i32, i32, i32, i32 }
%struct.CRYPTO_REF_COUNT = type { i32 }
%struct.crypto_ex_data_st = type { ptr, ptr }

@.str.2 = private unnamed_addr constant [5 x i8] c"SHA1\00", align 1

; Function Attrs: inlinehint nounwind uwtable
define internal ptr @ossl_check_const_X509_sk_type(ptr noundef %0) #3 {
  %2 = alloca ptr, align 8
  store ptr %0, ptr %2, align 8, !tbaa !8
  %3 = load ptr, ptr %2, align 8, !tbaa !8
  ret ptr %3
}

; Function Attrs: nounwind uwtable
define internal ptr @ocsp_find_signer_sk(ptr noundef %0, ptr noundef %1) #0 {
  %3 = alloca ptr, align 8
  %4 = alloca ptr, align 8
  %5 = alloca ptr, align 8
  %6 = alloca i32, align 4
  %7 = alloca i32, align 4
  %8 = alloca [20 x i8], align 16
  %9 = alloca ptr, align 8
  %10 = alloca ptr, align 8
  %11 = alloca ptr, align 8
  %12 = alloca i32, align 4
  store ptr %0, ptr %4, align 8, !tbaa !8
  store ptr %1, ptr %5, align 8, !tbaa !30
  call void @llvm.lifetime.start.p0(i64 4, ptr %6) #5
  call void @llvm.lifetime.start.p0(i64 4, ptr %7) #5
  call void @llvm.lifetime.start.p0(i64 20, ptr %8) #5
  call void @llvm.lifetime.start.p0(i64 8, ptr %9) #5
  call void @llvm.lifetime.start.p0(i64 8, ptr %10) #5
  call void @llvm.lifetime.start.p0(i64 8, ptr %11) #5
  %13 = load ptr, ptr %5, align 8, !tbaa !30
  %14 = getelementptr inbounds nuw %struct.ocsp_responder_id_st, ptr %13, i32 0, i32 0
  %15 = load i32, ptr %14, align 8, !tbaa !85
  %16 = icmp eq i32 %15, 0
  br i1 %16, label %17, label %23

17:                                               ; preds = %2
  %18 = load ptr, ptr %4, align 8, !tbaa !8
  %19 = load ptr, ptr %5, align 8, !tbaa !30
  %20 = getelementptr inbounds nuw %struct.ocsp_responder_id_st, ptr %19, i32 0, i32 1
  %21 = load ptr, ptr %20, align 8, !tbaa !82
  %22 = call ptr @X509_find_by_subject(ptr noundef %18, ptr noundef %21)
  store ptr %22, ptr %3, align 8
  store i32 1, ptr %12, align 4
  br label %81

23:                                               ; preds = %2
  %24 = load ptr, ptr %5, align 8, !tbaa !30
  %25 = getelementptr inbounds nuw %struct.ocsp_responder_id_st, ptr %24, i32 0, i32 1
  %26 = load ptr, ptr %25, align 8, !tbaa !82
  %27 = getelementptr inbounds nuw %struct.asn1_string_st, ptr %26, i32 0, i32 0
  %28 = load i32, ptr %27, align 8, !tbaa !86
  %29 = icmp ne i32 %28, 20
  br i1 %29, label %30, label %31

30:                                               ; preds = %23
  store ptr null, ptr %3, align 8
  store i32 1, ptr %12, align 4
  br label %81

31:                                               ; preds = %23
  %32 = load ptr, ptr %5, align 8, !tbaa !30
  %33 = getelementptr inbounds nuw %struct.ocsp_responder_id_st, ptr %32, i32 0, i32 1
  %34 = load ptr, ptr %33, align 8, !tbaa !82
  %35 = getelementptr inbounds nuw %struct.asn1_string_st, ptr %34, i32 0, i32 2
  %36 = load ptr, ptr %35, align 8, !tbaa !87
  store ptr %36, ptr %9, align 8, !tbaa !88
  store i32 0, ptr %6, align 4, !tbaa !14
  br label %37

37:                                               ; preds = %77, %31
  %38 = load i32, ptr %6, align 4, !tbaa !14
  %39 = load ptr, ptr %4, align 8, !tbaa !8
  %40 = call ptr @ossl_check_const_X509_sk_type(ptr noundef %39)
  %41 = call i32 @OPENSSL_sk_num(ptr noundef %40)
  %42 = icmp slt i32 %38, %41
  br i1 %42, label %43, label %80

43:                                               ; preds = %37
  %44 = load ptr, ptr %4, align 8, !tbaa !8
  %45 = call ptr @ossl_check_const_X509_sk_type(ptr noundef %44)
  %46 = load i32, ptr %6, align 4, !tbaa !14
  %47 = call ptr @OPENSSL_sk_value(ptr noundef %45, i32 noundef %46)
  store ptr %47, ptr %11, align 8, !tbaa !16
  %48 = icmp ne ptr %47, null
  br i1 %48, label %49, label %76

49:                                               ; preds = %43
  %50 = load ptr, ptr %11, align 8, !tbaa !16
  %51 = getelementptr inbounds nuw %struct.x509_st, ptr %50, i32 0, i32 25
  %52 = load ptr, ptr %51, align 8, !tbaa !44
  %53 = load ptr, ptr %11, align 8, !tbaa !16
  %54 = getelementptr inbounds nuw %struct.x509_st, ptr %53, i32 0, i32 26
  %55 = load ptr, ptr %54, align 8, !tbaa !66
  %56 = call ptr @EVP_MD_fetch(ptr noundef %52, ptr noundef @.str.2, ptr noundef %55)
  store ptr %56, ptr %10, align 8, !tbaa !89
  %57 = icmp eq ptr %56, null
  br i1 %57, label %58, label %59

58:                                               ; preds = %49
  br label %80

59:                                               ; preds = %49
  %60 = load ptr, ptr %11, align 8, !tbaa !16
  %61 = load ptr, ptr %10, align 8, !tbaa !89
  %62 = getelementptr inbounds [20 x i8], ptr %8, i64 0, i64 0
  %63 = call i32 @X509_pubkey_digest(ptr noundef %60, ptr noundef %61, ptr noundef %62, ptr noundef null)
  store i32 %63, ptr %7, align 4, !tbaa !14
  %64 = load ptr, ptr %10, align 8, !tbaa !89
  call void @EVP_MD_free(ptr noundef %64)
  %65 = load i32, ptr %7, align 4, !tbaa !14
  %66 = icmp ne i32 %65, 0
  br i1 %66, label %68, label %67

67:                                               ; preds = %59
  br label %80

68:                                               ; preds = %59
  %69 = load ptr, ptr %9, align 8, !tbaa !88
  %70 = getelementptr inbounds [20 x i8], ptr %8, i64 0, i64 0
  %71 = call i32 @memcmp(ptr noundef %69, ptr noundef %70, i64 noundef 20) #6
  %72 = icmp eq i32 %71, 0
  br i1 %72, label %73, label %75

73:                                               ; preds = %68
  %74 = load ptr, ptr %11, align 8, !tbaa !16
  store ptr %74, ptr %3, align 8
  store i32 1, ptr %12, align 4
  br label %81

75:                                               ; preds = %68
  br label %76

76:                                               ; preds = %75, %43
  br label %77

77:                                               ; preds = %76
  %78 = load i32, ptr %6, align 4, !tbaa !14
  %79 = add nsw i32 %78, 1
  store i32 %79, ptr %6, align 4, !tbaa !14
  br label %37, !llvm.loop !91

80:                                               ; preds = %67, %58, %37
  store ptr null, ptr %3, align 8
  store i32 1, ptr %12, align 4
  br label %81

81:                                               ; preds = %80, %73, %30, %17
  call void @llvm.lifetime.end.p0(i64 8, ptr %11) #5
  call void @llvm.lifetime.end.p0(i64 8, ptr %10) #5
  call void @llvm.lifetime.end.p0(i64 8, ptr %9) #5
  call void @llvm.lifetime.end.p0(i64 20, ptr %8) #5
  call void @llvm.lifetime.end.p0(i64 4, ptr %7) #5
  call void @llvm.lifetime.end.p0(i64 4, ptr %6) #5
  %82 = load ptr, ptr %3, align 8
  ret ptr %82
}