; Function Attrs: nounwind uwtable
define internal fastcc ptr @ocsp_find_signer_sk(ptr noundef %0, ptr noundef readonly captures(none) %1) unnamed_addr #0 {
  %3 = alloca [20 x i8], align 16
  call void @llvm.lifetime.start.p0(i64 20, ptr nonnull %3) #4
  %4 = load i32, ptr %1, align 8, !tbaa !68
  %5 = icmp eq i32 %4, 0
  %6 = getelementptr inbounds nuw i8, ptr %1, i64 8
  %7 = load ptr, ptr %6, align 8, !tbaa !66
  br i1 %5, label %8, label %10

8:                                                ; preds = %2
  %9 = tail call ptr @X509_find_by_subject(ptr noundef %0, ptr noundef %7) #4
  br label %.loopexit

10:                                               ; preds = %2
  %11 = load i32, ptr %7, align 8, !tbaa !69
  %.not = icmp eq i32 %11, 20
  br i1 %.not, label %12, label %.loopexit

12:                                               ; preds = %10
  %13 = getelementptr inbounds nuw i8, ptr %7, i64 8
  %14 = load ptr, ptr %13, align 8, !tbaa !70
  %15 = tail call i32 @OPENSSL_sk_num(ptr noundef %0) #4
  %16 = icmp sgt i32 %15, 0
  br i1 %16, label %.lr.ph, label %.loopexit

.lr.ph:                                           ; preds = %12, %29
  %.01823 = phi i32 [ %30, %29 ], [ 0, %12 ]
  %17 = call ptr @OPENSSL_sk_value(ptr noundef %0, i32 noundef %.01823) #4
  %.not21 = icmp eq ptr %17, null
  br i1 %.not21, label %29, label %18

18:                                               ; preds = %.lr.ph
  %19 = getelementptr inbounds nuw i8, ptr %17, i64 368
  %20 = load ptr, ptr %19, align 8, !tbaa !39
  %21 = getelementptr inbounds nuw i8, ptr %17, i64 376
  %22 = load ptr, ptr %21, align 8, !tbaa !59
  %23 = call ptr @EVP_MD_fetch(ptr noundef %20, ptr noundef nonnull @.str.2, ptr noundef %22) #4
  %24 = icmp eq ptr %23, null
  br i1 %24, label %.loopexit, label %25

25:                                               ; preds = %18
  %26 = call i32 @X509_pubkey_digest(ptr noundef nonnull %17, ptr noundef nonnull %23, ptr noundef nonnull %3, ptr noundef null) #4
  call void @EVP_MD_free(ptr noundef nonnull %23) #4
  %.not22 = icmp eq i32 %26, 0
  br i1 %.not22, label %.loopexit, label %27

27:                                               ; preds = %25
  %bcmp = call i32 @bcmp(ptr noundef nonnull dereferenceable(20) %14, ptr noundef nonnull dereferenceable(20) %3, i64 20)
  %28 = icmp eq i32 %bcmp, 0
  br i1 %28, label %.loopexit, label %29

29:                                               ; preds = %.lr.ph, %27
  %30 = add nuw nsw i32 %.01823, 1
  %31 = call i32 @OPENSSL_sk_num(ptr noundef %0) #4
  %32 = icmp slt i32 %30, %31
  br i1 %32, label %.lr.ph, label %.loopexit, !llvm.loop !71

.loopexit:                                        ; preds = %27, %25, %18, %29, %12, %10, %8
  %.0 = phi ptr [ %9, %8 ], [ null, %10 ], [ null, %12 ], [ %17, %27 ], [ null, %25 ], [ null, %18 ], [ null, %29 ]
  call void @llvm.lifetime.end.p0(i64 20, ptr nonnull %3) #4
  ret ptr %.0
}